target datalayout = "e-m:e-p270:32:32-p271:32:32-p272:64:64-i64:64-i128:128-f80:128-n8:16:32:64-S128"
target triple = "x86_64-pc-linux-gnu"

%struct.DdManager = type { %struct.DdNode, ptr, ptr, ptr, ptr, ptr, ptr, ptr, i32, i32, double, double, double, i32, i32, i32, i32, i32, i32, ptr, ptr, %struct.DdSubtable, i32, i32, i32, i32, i32, i32, i32, double, i32, i32, i32, ptr, i64, double, i32, ptr, ptr, ptr, ptr, ptr, ptr, ptr, i32, ptr, ptr, ptr, ptr, ptr, ptr, i32, i32, i32, double, i32, i32, i32, i32, double, double, i32, i32, i32, i32, i32, i32, i32, i32, i32, ptr, ptr, i32, i32, i32, i32, i32, i32, ptr, ptr, ptr, ptr, ptr, ptr, ptr, ptr, i32, i64, i64, i64, i32, i64, i64, double, double, double, double, double, double, i32, ptr, ptr, i64 }
%struct.DdNode = type { i32, i32, ptr, %union.anon.1, i64 }
%union.anon.1 = type { %struct.DdChildren }
%struct.DdChildren = type { ptr, ptr }
%struct.DdSubtable = type { ptr, i32, i32, i32, i32, i32, i32, i32, i32, i32, i32, i32 }

; Function Attrs: nounwind uwtable
define ptr @Abc_NtkBddDecCharFunc(ptr noundef %0, ptr noundef %1, i32 noundef %2, i32 noundef %3, i32 noundef %4) #0 {
  %6 = alloca ptr, align 8
  %7 = alloca ptr, align 8
  %8 = alloca i32, align 4
  %9 = alloca i32, align 4
  %10 = alloca i32, align 4
  %11 = alloca ptr, align 8
  %12 = alloca ptr, align 8
  %13 = alloca ptr, align 8
  %14 = alloca ptr, align 8
  %15 = alloca i32, align 4
  %16 = alloca i32, align 4
  store ptr %0, ptr %6, align 8
  store ptr %1, ptr %7, align 8
  store i32 %2, ptr %8, align 4
  store i32 %3, ptr %9, align 4
  store i32 %4, ptr %10, align 4
  store i32 0, ptr %16, align 4
  %17 = load ptr, ptr %6, align 8
  %18 = call ptr @Cudd_ReadOne(ptr noundef %17)
  store ptr %18, ptr %11, align 8
  %19 = load ptr, ptr %11, align 8
  call void @Cudd_Ref(ptr noundef %19)
  store i32 0, ptr %15, align 4
  br label %20

20:                                               ; preds = %64, %5
  %21 = load i32, ptr %15, align 4
  %22 = load i32, ptr %8, align 4
  %23 = icmp slt i32 %21, %22
  br i1 %23, label %24, label %67

24:                                               ; preds = %20
  %25 = load i32, ptr %9, align 4
  %26 = load i32, ptr %15, align 4
  %27 = shl i32 1, %26
  %28 = and i32 %25, %27
  %29 = icmp eq i32 %28, 0
  br i1 %29, label %30, label %31

30:                                               ; preds = %24
  br label %64

31:                                               ; preds = %24
  %32 = load i32, ptr %16, align 4
  %33 = add nsw i32 %32, 1
  store i32 %33, ptr %16, align 4
  %34 = load ptr, ptr %6, align 8
  %35 = load ptr, ptr %6, align 8
  %36 = getelementptr inbounds %struct.DdManager, ptr %35, i32 0, i32 15
  %37 = load i32, ptr %36, align 8
  %38 = load i32, ptr %8, align 4
  %39 = sub nsw i32 %37, %38
  %40 = load i32, ptr %15, align 4
  %41 = add nsw i32 %39, %40
  %42 = call ptr @Cudd_bddIthVar(ptr noundef %34, i32 noundef %41)
  store ptr %42, ptr %14, align 8
  %43 = load ptr, ptr %6, align 8
  %44 = load ptr, ptr %7, align 8
  %45 = load i32, ptr %15, align 4
  %46 = sext i32 %45 to i64
  %47 = getelementptr inbounds ptr, ptr %44, i64 %46
  %48 = load ptr, ptr %47, align 8
  %49 = load ptr, ptr %14, align 8
  %50 = call ptr @Cudd_bddXor(ptr noundef %43, ptr noundef %48, ptr noundef %49)
  store ptr %50, ptr %13, align 8
  %51 = load ptr, ptr %13, align 8
  call void @Cudd_Ref(ptr noundef %51)
  %52 = load ptr, ptr %6, align 8
  %53 = load ptr, ptr %11, align 8
  store ptr %53, ptr %12, align 8
  %54 = load ptr, ptr %13, align 8
  %55 = ptrtoint ptr %54 to i64
  %56 = xor i64 %55, 1
  %57 = inttoptr i64 %56 to ptr
  %58 = call ptr @Cudd_bddAnd(ptr noundef %52, ptr noundef %53, ptr noundef %57)
  store ptr %58, ptr %11, align 8
  %59 = load ptr, ptr %11, align 8
  call void @Cudd_Ref(ptr noundef %59)
  %60 = load ptr, ptr %6, align 8
  %61 = load ptr, ptr %12, align 8
  call void @Cudd_RecursiveDeref(ptr noundef %60, ptr noundef %61)
  %62 = load ptr, ptr %6, align 8
  %63 = load ptr, ptr %13, align 8
  call void @Cudd_RecursiveDeref(ptr noundef %62, ptr noundef %63)
  br label %64

64:                                               ; preds = %31, %30
  %65 = load i32, ptr %15, align 4
  %66 = add nsw i32 %65, 1
  store i32 %66, ptr %15, align 4
  br label %20, !llvm.loop !50

67:                                               ; preds = %20
  %68 = load ptr, ptr %11, align 8
  call void @Cudd_Deref(ptr noundef %68)
  %69 = load ptr, ptr %11, align 8
  ret ptr %69
}