; Function Attrs: nounwind uwtable
define noundef ptr @Abc_NtkBddDecCharFunc(ptr noundef %0, ptr noundef readonly captures(none) %1, i32 noundef %2, i32 noundef %3, i32 %4) local_unnamed_addr #0 {
  %6 = tail call ptr @Cudd_ReadOne(ptr noundef %0) #18
  tail call void @Cudd_Ref(ptr noundef %6) #18
  %7 = icmp sgt i32 %2, 0
  br i1 %7, label %.lr.ph, label %._crit_edge

.lr.ph:                                           ; preds = %5
  %8 = getelementptr inbounds nuw i8, ptr %0, i64 136
  %wide.trip.count = zext nneg i32 %2 to i64
  br label %9

9:                                                ; preds = %.lr.ph, %27
  %indvars.iv = phi i64 [ 0, %.lr.ph ], [ %indvars.iv.next, %27 ]
  %.02730 = phi ptr [ %6, %.lr.ph ], [ %.128, %27 ]
  %10 = trunc nuw nsw i64 %indvars.iv to i32
  %11 = shl nuw i32 1, %10
  %12 = and i32 %11, %3
  %13 = icmp eq i32 %12, 0
  br i1 %13, label %27, label %14

14:                                               ; preds = %9
  %15 = load i32, ptr %8, align 8
  %16 = trunc i64 %indvars.iv to i32
  %17 = sub i32 %16, %2
  %18 = add i32 %17, %15
  %19 = tail call ptr @Cudd_bddIthVar(ptr noundef %0, i32 noundef %18) #18
  %20 = getelementptr inbounds nuw ptr, ptr %1, i64 %indvars.iv
  %21 = load ptr, ptr %20, align 8
  %22 = tail call ptr @Cudd_bddXor(ptr noundef %0, ptr noundef %21, ptr noundef %19) #18
  tail call void @Cudd_Ref(ptr noundef %22) #18
  %23 = ptrtoint ptr %22 to i64
  %24 = xor i64 %23, 1
  %25 = inttoptr i64 %24 to ptr
  %26 = tail call ptr @Cudd_bddAnd(ptr noundef %0, ptr noundef %.02730, ptr noundef %25) #18
  tail call void @Cudd_Ref(ptr noundef %26) #18
  tail call void @Cudd_RecursiveDeref(ptr noundef %0, ptr noundef %.02730) #18
  tail call void @Cudd_RecursiveDeref(ptr noundef %0, ptr noundef %22) #18
  br label %27

27:                                               ; preds = %9, %14
  %.128 = phi ptr [ %.02730, %9 ], [ %26, %14 ]
  %indvars.iv.next = add nuw nsw i64 %indvars.iv, 1
  %exitcond.not = icmp eq i64 %indvars.iv.next, %wide.trip.count
  br i1 %exitcond.not, label %._crit_edge, label %9, !llvm.loop !46

._crit_edge:                                      ; preds = %27, %5
  %.027.lcssa = phi ptr [ %6, %5 ], [ %.128, %27 ]
  tail call void @Cudd_Deref(ptr noundef %.027.lcssa) #18
  ret ptr %.027.lcssa
}